target datalayout = "e-m:e-p270:32:32-p271:32:32-p272:64:64-i64:64-i128:128-f80:128-n8:16:32:64-S128"
target triple = "x86_64-unknown-linux-gnu"

%struct.stat = type { i64, i64, i64, i32, i32, i32, i32, i64, i64, i64, i64, %struct.timespec, %struct.timespec, %struct.timespec, [3 x i64] }
%struct.timespec = type { i64, i64 }

; Function Attrs: nounwind uwtable
define dso_local i32 @anetIsFifo(ptr noundef %filepath) #0 {
entry:
  %retval = alloca i32, align 4
  %filepath.addr = alloca ptr, align 8
  %sb = alloca %struct.stat, align 8
  store ptr %filepath, ptr %filepath.addr, align 8
  %0 = load ptr, ptr %filepath.addr, align 8
  %call = call i32 @stat64(ptr noundef %0, ptr noundef %sb) #7
  %cmp = icmp eq i32 %call, -1
  br i1 %cmp, label %if.then, label %if.end

if.then:                                          ; preds = %entry
  store i32 0, ptr %retval, align 4
  br label %return

if.end:                                           ; preds = %entry
  %st_mode = getelementptr inbounds %struct.stat, ptr %sb, i32 0, i32 3
  %1 = load i32, ptr %st_mode, align 8
  %and = and i32 %1, 61440
  %cmp1 = icmp eq i32 %and, 4096
  %conv = zext i1 %cmp1 to i32
  store i32 %conv, ptr %retval, align 4
  br label %return

return:                                           ; preds = %if.end, %if.then
  %2 = load i32, ptr %retval, align 4
  ret i32 %2
}