; Function Attrs: nofree nounwind uwtable
define dso_local i32 @anetIsFifo(ptr nocapture noundef readonly %filepath) local_unnamed_addr #4 {
entry:
  %sb = alloca %struct.stat, align 8
  %call = call i32 @stat64(ptr noundef %filepath, ptr noundef nonnull %sb) #10
  %cmp = icmp ne i32 %call, -1
  %st_mode = getelementptr inbounds i8, ptr %sb, i64 24
  %0 = load i32, ptr %st_mode, align 8
  %and = and i32 %0, 61440
  %cmp1 = icmp eq i32 %and, 4096
  %narrow = select i1 %cmp, i1 %cmp1, i1 false
  %retval.0 = zext i1 %narrow to i32
  ret i32 %retval.0
}